target datalayout = "e-m:e-p270:32:32-p271:32:32-p272:64:64-i64:64-i128:128-f80:128-n8:16:32:64-S128"
target triple = "x86_64-unknown-linux-gnu"

%struct._DBusDisplayConsole = type { %struct._GDBusObjectSkeleton, %struct.DisplayChangeListener, ptr, ptr, ptr, ptr, ptr, ptr, ptr, i32, i32, i32, %struct.Notifier }
%struct._GDBusObjectSkeleton = type { %struct._GObject, ptr }
%struct._GObject = type { %struct._GTypeInstance, i32, ptr }
%struct._GTypeInstance = type { ptr }
%struct.DisplayChangeListener = type { i64, ptr, ptr, ptr, %struct.anon }
%struct.anon = type { ptr, ptr }
%struct.Notifier = type { ptr, %struct.anon.0 }
%struct.anon.0 = type { ptr, ptr }
%struct.DisplaySurface = type { ptr, i8 }

@.str.14 = private unnamed_addr constant [6 x i8] c"width\00", align 1
@.str.15 = private unnamed_addr constant [7 x i8] c"height\00", align 1

; Function Attrs: nounwind sspstrong uwtable
define internal void @dbus_display_console_set_size(ptr noundef %ddc, i32 noundef %width, i32 noundef %height) #0 {
entry:
  %ddc.addr = alloca ptr, align 8
  %width.addr = alloca i32, align 4
  %height.addr = alloca i32, align 4
  store ptr %ddc, ptr %ddc.addr, align 8
  store i32 %width, ptr %width.addr, align 4
  store i32 %height, ptr %height.addr, align 4
  %0 = load ptr, ptr %ddc.addr, align 8
  %iface = getelementptr inbounds %struct._DBusDisplayConsole, ptr %0, i32 0, i32 4
  %1 = load ptr, ptr %iface, align 8
  %2 = load i32, ptr %width.addr, align 4
  %3 = load i32, ptr %height.addr, align 4
  call void (ptr, ptr, ...) @g_object_set(ptr noundef %1, ptr noundef @.str.14, i32 noundef %2, ptr noundef @.str.15, i32 noundef %3, ptr noundef null)
  ret void
}

; Function Attrs: nounwind sspstrong uwtable
define internal i32 @surface_height(ptr noundef %s) #0 {
entry:
  %s.addr = alloca ptr, align 8
  store ptr %s, ptr %s.addr, align 8
  %0 = load ptr, ptr %s.addr, align 8
  %image = getelementptr inbounds %struct.DisplaySurface, ptr %0, i32 0, i32 0
  %1 = load ptr, ptr %image, align 8
  %call = call i32 @pixman_image_get_height(ptr noundef %1)
  ret i32 %call
}

; Function Attrs: nounwind sspstrong uwtable
define internal i32 @surface_width(ptr noundef %s) #0 {
entry:
  %s.addr = alloca ptr, align 8
  store ptr %s, ptr %s.addr, align 8
  %0 = load ptr, ptr %s.addr, align 8
  %image = getelementptr inbounds %struct.DisplaySurface, ptr %0, i32 0, i32 0
  %1 = load ptr, ptr %image, align 8
  %call = call i32 @pixman_image_get_width(ptr noundef %1)
  ret i32 %call
}

; Function Attrs: nounwind sspstrong uwtable
define internal void @dbus_gfx_switch(ptr noundef %dcl, ptr noundef %new_surface) #0 {
entry:
  %dcl.addr = alloca ptr, align 8
  %new_surface.addr = alloca ptr, align 8
  %ddc = alloca ptr, align 8
  %__mptr = alloca ptr, align 8
  %tmp = alloca ptr, align 8
  store ptr %dcl, ptr %dcl.addr, align 8
  store ptr %new_surface, ptr %new_surface.addr, align 8
  %0 = load ptr, ptr %dcl.addr, align 8
  store ptr %0, ptr %__mptr, align 8
  %1 = load ptr, ptr %__mptr, align 8
  %add.ptr = getelementptr i8, ptr %1, i64 -32
  store ptr %add.ptr, ptr %tmp, align 8
  %2 = load ptr, ptr %tmp, align 8
  store ptr %2, ptr %ddc, align 8
  %3 = load ptr, ptr %ddc, align 8
  %4 = load ptr, ptr %new_surface.addr, align 8
  %call = call i32 @surface_width(ptr noundef %4)
  %5 = load ptr, ptr %new_surface.addr, align 8
  %call1 = call i32 @surface_height(ptr noundef %5)
  call void @dbus_display_console_set_size(ptr noundef %3, i32 noundef %call, i32 noundef %call1)
  ret void
}