; Function Attrs: nounwind sspstrong uwtable
define internal void @dbus_gfx_switch(ptr noundef readonly captures(none) %dcl, ptr noundef readonly captures(none) %new_surface) #0 {
entry:
  %new_surface.val = load ptr, ptr %new_surface, align 8
  %call.i = tail call i32 @pixman_image_get_width(ptr noundef %new_surface.val) #9
  %new_surface.val2 = load ptr, ptr %new_surface, align 8
  %call.i3 = tail call i32 @pixman_image_get_height(ptr noundef %new_surface.val2) #9
  %0 = getelementptr i8, ptr %dcl, i64 64
  %add.ptr.val = load ptr, ptr %0, align 8
  tail call void (ptr, ptr, ...) @g_object_set(ptr noundef %add.ptr.val, ptr noundef nonnull @.str.14, i32 noundef %call.i, ptr noundef nonnull @.str.15, i32 noundef %call.i3, ptr noundef null) #9
  ret void
}